target datalayout = "e-m:e-p270:32:32-p271:32:32-p272:64:64-i64:64-i128:128-f80:128-n8:16:32:64-S128"
target triple = "x86_64-pc-linux-gnu"

%"class.grpc_event_engine::experimental::EventEngine::ResolvedAddress" = type { [128 x i8], i32 }
%struct.sockaddr = type { i16, [14 x i8] }
%struct.sockaddr_in6 = type { i16, i16, i32, %struct.in6_addr, i32 }
%struct.in6_addr = type { %union.anon }
%union.anon = type { [4 x i32] }
%struct.sockaddr_in = type { i16, i16, %struct.in_addr, [8 x i8] }
%struct.in_addr = type { i32 }

@_ZN17grpc_event_engine12experimental12_GLOBAL__N_115kV4MappedPrefixE = internal constant [12 x i8] c"\00\00\00\00\00\00\00\00\00\00\FF\FF", align 1

; Function Attrs: mustprogress uwtable
define noundef zeroext i1 @_ZN17grpc_event_engine12experimental25ResolvedAddressIsV4MappedERKNS0_11EventEngine15ResolvedAddressEPS2_(ptr noundef nonnull align 4 dereferenceable(132) %0, ptr noundef %1) #4 {
  %3 = alloca i1, align 1
  %4 = alloca ptr, align 8
  %5 = alloca ptr, align 8
  %6 = alloca ptr, align 8
  %7 = alloca ptr, align 8
  %8 = alloca ptr, align 8
  %9 = alloca %"class.grpc_event_engine::experimental::EventEngine::ResolvedAddress", align 4
  %10 = alloca i32, align 4
  store ptr %0, ptr %4, align 8, !tbaa !3
  store ptr %1, ptr %5, align 8, !tbaa !3
  call void @llvm.lifetime.start.p0(i64 8, ptr %6) #3
  %11 = load ptr, ptr %4, align 8, !tbaa !3
  %12 = call noundef ptr @_ZNK17grpc_event_engine12experimental11EventEngine15ResolvedAddress7addressEv(ptr noundef nonnull align 4 dereferenceable(132) %11)
  store ptr %12, ptr %6, align 8, !tbaa !8
  %13 = load ptr, ptr %6, align 8, !tbaa !8
  %14 = getelementptr inbounds nuw %struct.sockaddr, ptr %13, i32 0, i32 0
  %15 = load i16, ptr %14, align 2, !tbaa !10
  %16 = zext i16 %15 to i32
  %17 = icmp eq i32 %16, 10
  br i1 %17, label %18, label %59

18:                                               ; preds = %2
  call void @llvm.lifetime.start.p0(i64 8, ptr %7) #3
  %19 = load ptr, ptr %6, align 8, !tbaa !8
  store ptr %19, ptr %7, align 8, !tbaa !13
  call void @llvm.lifetime.start.p0(i64 8, ptr %8) #3
  %20 = load ptr, ptr %5, align 8, !tbaa !3
  %21 = icmp eq ptr %20, null
  br i1 %21, label %22, label %23

22:                                               ; preds = %18
  br label %26

23:                                               ; preds = %18
  %24 = load ptr, ptr %5, align 8, !tbaa !3
  %25 = call noundef ptr @_ZNK17grpc_event_engine12experimental11EventEngine15ResolvedAddress7addressEv(ptr noundef nonnull align 4 dereferenceable(132) %24)
  br label %26

26:                                               ; preds = %23, %22
  %27 = phi ptr [ null, %22 ], [ %25, %23 ]
  store ptr %27, ptr %8, align 8, !tbaa !15
  %28 = load ptr, ptr %7, align 8, !tbaa !13
  %29 = getelementptr inbounds nuw %struct.sockaddr_in6, ptr %28, i32 0, i32 3
  %30 = getelementptr inbounds nuw %struct.in6_addr, ptr %29, i32 0, i32 0
  %31 = getelementptr inbounds [16 x i8], ptr %30, i64 0, i64 0
  %32 = call i32 @memcmp(ptr noundef %31, ptr noundef @_ZN17grpc_event_engine12experimental12_GLOBAL__N_115kV4MappedPrefixE, i64 noundef 12) #22
  %33 = icmp eq i32 %32, 0
  br i1 %33, label %34, label %55

34:                                               ; preds = %26
  %35 = load ptr, ptr %5, align 8, !tbaa !3
  %36 = icmp ne ptr %35, null
  br i1 %36, label %37, label %54

37:                                               ; preds = %34
  %38 = load ptr, ptr %8, align 8, !tbaa !15
  call void @llvm.memset.p0.i64(ptr align 4 %38, i8 0, i64 128, i1 false)
  %39 = load ptr, ptr %8, align 8, !tbaa !15
  %40 = getelementptr inbounds nuw %struct.sockaddr_in, ptr %39, i32 0, i32 0
  store i16 2, ptr %40, align 4, !tbaa !17
  %41 = load ptr, ptr %8, align 8, !tbaa !15
  %42 = getelementptr inbounds nuw %struct.sockaddr_in, ptr %41, i32 0, i32 2
  %43 = load ptr, ptr %7, align 8, !tbaa !13
  %44 = getelementptr inbounds nuw %struct.sockaddr_in6, ptr %43, i32 0, i32 3
  %45 = getelementptr inbounds nuw %struct.in6_addr, ptr %44, i32 0, i32 0
  %46 = getelementptr inbounds [16 x i8], ptr %45, i64 0, i64 12
  call void @llvm.memcpy.p0.p0.i64(ptr align 4 %42, ptr align 4 %46, i64 4, i1 false)
  %47 = load ptr, ptr %7, align 8, !tbaa !13
  %48 = getelementptr inbounds nuw %struct.sockaddr_in6, ptr %47, i32 0, i32 1
  %49 = load i16, ptr %48, align 2, !tbaa !21
  %50 = load ptr, ptr %8, align 8, !tbaa !15
  %51 = getelementptr inbounds nuw %struct.sockaddr_in, ptr %50, i32 0, i32 1
  store i16 %49, ptr %51, align 2, !tbaa !24
  call void @llvm.lifetime.start.p0(i64 132, ptr %9) #3
  %52 = load ptr, ptr %8, align 8, !tbaa !15
  call void @_ZN17grpc_event_engine12experimental11EventEngine15ResolvedAddressC1EPK8sockaddrj(ptr noundef nonnull align 4 dereferenceable(132) %9, ptr noundef %52, i32 noundef 16)
  %53 = load ptr, ptr %5, align 8, !tbaa !3
  call void @llvm.memcpy.p0.p0.i64(ptr align 4 %53, ptr align 4 %9, i64 132, i1 false), !tbaa.struct !25
  call void @llvm.lifetime.end.p0(i64 132, ptr %9) #3
  br label %54

54:                                               ; preds = %37, %34
  store i1 true, ptr %3, align 1
  store i32 1, ptr %10, align 4
  br label %56

55:                                               ; preds = %26
  store i32 0, ptr %10, align 4
  br label %56

56:                                               ; preds = %55, %54
  call void @llvm.lifetime.end.p0(i64 8, ptr %8) #3
  call void @llvm.lifetime.end.p0(i64 8, ptr %7) #3
  %57 = load i32, ptr %10, align 4
  switch i32 %57, label %60 [
    i32 0, label %58
  ]

58:                                               ; preds = %56
  br label %59

59:                                               ; preds = %58, %2
  store i1 false, ptr %3, align 1
  store i32 1, ptr %10, align 4
  br label %60

60:                                               ; preds = %59, %56
  call void @llvm.lifetime.end.p0(i64 8, ptr %6) #3
  %61 = load i1, ptr %3, align 1
  ret i1 %61
}