; Function Attrs: mustprogress uwtable
define noundef zeroext i1 @_ZN17grpc_event_engine12experimental25ResolvedAddressIsV4MappedERKNS0_11EventEngine15ResolvedAddressEPS2_(ptr noundef nonnull align 4 dereferenceable(132) %0, ptr noundef %1) local_unnamed_addr #3 {
  %3 = alloca %"class.grpc_event_engine::experimental::EventEngine::ResolvedAddress", align 4
  %4 = tail call noundef ptr @_ZNK17grpc_event_engine12experimental11EventEngine15ResolvedAddress7addressEv(ptr noundef nonnull align 4 dereferenceable(132) %0)
  %5 = load i16, ptr %4, align 2, !tbaa !3
  %6 = icmp eq i16 %5, 10
  br i1 %6, label %7, label %.critedge

7:                                                ; preds = %2
  %8 = icmp eq ptr %1, null
  br i1 %8, label %9, label %.thread

9:                                                ; preds = %7
  %10 = getelementptr inbounds nuw i8, ptr %4, i64 8
  %bcmp = tail call i32 @bcmp(ptr noundef nonnull dereferenceable(12) %10, ptr noundef nonnull dereferenceable(12) @_ZN17grpc_event_engine12experimental12_GLOBAL__N_115kV4MappedPrefixE, i64 12)
  %.not19 = icmp eq i32 %bcmp, 0
  br i1 %.not19, label %20, label %.critedge

.thread:                                          ; preds = %7
  %11 = tail call noundef ptr @_ZNK17grpc_event_engine12experimental11EventEngine15ResolvedAddress7addressEv(ptr noundef nonnull align 4 dereferenceable(132) %1)
  %12 = getelementptr inbounds nuw i8, ptr %4, i64 8
  %bcmp20 = tail call i32 @bcmp(ptr noundef nonnull dereferenceable(12) %12, ptr noundef nonnull dereferenceable(12) @_ZN17grpc_event_engine12experimental12_GLOBAL__N_115kV4MappedPrefixE, i64 12)
  %.not1921 = icmp eq i32 %bcmp20, 0
  br i1 %.not1921, label %13, label %.critedge

13:                                               ; preds = %.thread
  tail call void @llvm.memset.p0.i64(ptr noundef nonnull align 4 dereferenceable(128) %11, i8 0, i64 128, i1 false)
  store i16 2, ptr %11, align 4, !tbaa !8
  %14 = getelementptr inbounds nuw i8, ptr %11, i64 4
  %15 = getelementptr inbounds nuw i8, ptr %4, i64 20
  %16 = load i32, ptr %15, align 4
  store i32 %16, ptr %14, align 4
  %17 = getelementptr inbounds nuw i8, ptr %4, i64 2
  %18 = load i16, ptr %17, align 2, !tbaa !12
  %19 = getelementptr inbounds nuw i8, ptr %11, i64 2
  store i16 %18, ptr %19, align 2, !tbaa !15
  call void @llvm.lifetime.start.p0(i64 132, ptr nonnull %3) #25
  call void @_ZN17grpc_event_engine12experimental11EventEngine15ResolvedAddressC1EPK8sockaddrj(ptr noundef nonnull align 4 dereferenceable(132) %3, ptr noundef nonnull %11, i32 noundef 16)
  call void @llvm.memcpy.p0.p0.i64(ptr noundef nonnull align 4 dereferenceable(132) %1, ptr noundef nonnull align 4 dereferenceable(132) %3, i64 132, i1 false), !tbaa.struct !16
  call void @llvm.lifetime.end.p0(i64 132, ptr nonnull %3) #25
  br label %20

.critedge:                                        ; preds = %.thread, %9, %2
  br label %20

20:                                               ; preds = %13, %9, %.critedge
  %.1 = phi i1 [ false, %.critedge ], [ true, %9 ], [ true, %13 ]
  ret i1 %.1
}